(lp0
V__nlep_val-0__LepTmass_val-0__LepTmassMax_val-200__InvariantM_val-0__InvariantM2_val-0__Range_val-0__leppt_val-25__minnjet_val-0__maxnjet_val-9__btagmin_val-0__btagmax_val-9__minmissE_val-0__maxmissE_val-200__percentg_val-1.0__TwoLepcharge_val-1__TwoLepflavour_val-1__st_lepchargecb-0__st_lepflavourcb-0__st_InvMasscb-0__st_lepptcb-0__st_btagjetcb-0__st_lepcb-0__st_jetcb-0__st_missPcb-0__samplesKey-
p1
aV__nlep_val-0__LepTmass_val-0__LepTmassMax_val-200__InvariantM_val-0__InvariantM2_val-0__Range_val-0__leppt_val-25__minnjet_val-0__maxnjet_val-9__btagmin_val-0__btagmax_val-9__minmissE_val-0__maxmissE_val-200__percentg_val-0.1__TwoLepcharge_val-1__TwoLepflavour_val-1__st_lepchargecb-0__st_lepflavourcb-0__st_InvMasscb-0__st_lepptcb-0__st_btagjetcb-0__st_lepcb-0__st_jetcb-0__st_missPcb-0__samplesKey-
p2
aV__nlep_val-2__LepTmass_val-0__LepTmassMax_val-200__InvariantM_val-0__InvariantM2_val-0__Range_val-0__leppt_val-25__minnjet_val-0__maxnjet_val-9__btagmin_val-0__btagmax_val-9__minmissE_val-0__maxmissE_val-200__percentg_val-0.1__TwoLepcharge_val-1__TwoLepflavour_val-1__st_lepchargecb-0__st_lepflavourcb-0__st_InvMasscb-0__st_lepptcb-0__st_btagjetcb-0__st_lepcb-0__st_jetcb-0__st_missPcb-0__samplesKey-
p3
aV__nlep_val-1__LepTmass_val-0__LepTmassMax_val-200__InvariantM_val-0__InvariantM2_val-0__Range_val-0__leppt_val-25__minnjet_val-2__maxnjet_val-9__btagmin_val-0__btagmax_val-9__minmissE_val-0__maxmissE_val-200__percentg_val-0.1__TwoLepcharge_val-1__TwoLepflavour_val-1__st_lepchargecb-0__st_lepflavourcb-0__st_InvMasscb-0__st_lepptcb-0__st_btagjetcb-0__st_lepcb-0__st_jetcb-1__st_missPcb-0__samplesKey-
p4
aV__nlep_val-1__LepTmass_val-0__LepTmassMax_val-200__InvariantM_val-0__InvariantM2_val-0__Range_val-0__leppt_val-25__minnjet_val-0__maxnjet_val-9__btagmin_val-0__btagmax_val-9__minmissE_val-0__maxmissE_val-200__percentg_val-0.1__TwoLepcharge_val-1__TwoLepflavour_val-1__st_lepchargecb-0__st_lepflavourcb-0__st_InvMasscb-0__st_lepptcb-0__st_btagjetcb-0__st_lepcb-0__st_jetcb-0__st_missPcb-0__samplesKey-
p5
aV__nlep_val-1__LepTmass_val-20.0__LepTmassMax_val-40.0__InvariantM_val-0__InvariantM2_val-0__Range_val-0__leppt_val-25__minnjet_val-2__maxnjet_val-9__btagmin_val-2__btagmax_val-4__minmissE_val-20.0__maxmissE_val-40.0__percentg_val-10.0__TwoLepcharge_val-1__TwoLepflavour_val-1__st_lepchargecb-0__st_lepflavourcb-0__st_InvMasscb-0__st_lepptcb-0__st_btagjetcb-1__st_lepcb-1__st_jetcb-1__st_missPcb-1__samplesKey-
p6
aV__nlep_val-0__LepTmass_val-0__LepTmassMax_val-200__InvariantM_val-0__InvariantM2_val-0__Range_val-0__leppt_val-25__minnjet_val-2__maxnjet_val-9__btagmin_val-2__btagmax_val-4__minmissE_val-0__maxmissE_val-200__percentg_val-1.0__TwoLepcharge_val-1__TwoLepflavour_val-1__st_lepchargecb-0__st_lepflavourcb-0__st_InvMasscb-0__st_lepptcb-0__st_btagjetcb-1__st_lepcb-0__st_jetcb-1__st_missPcb-0__samplesKey-
p7
aV__nlep_val-1__LepTmass_val-20.0__LepTmassMax_val-40.0__InvariantM_val-0__InvariantM2_val-0__Range_val-0__leppt_val-25__minnjet_val-2__maxnjet_val-9__btagmin_val-2__btagmax_val-4__minmissE_val-20.0__maxmissE_val-40.0__percentg_val-1.0__TwoLepcharge_val-1__TwoLepflavour_val-1__st_lepchargecb-0__st_lepflavourcb-0__st_InvMasscb-0__st_lepptcb-0__st_btagjetcb-1__st_lepcb-1__st_jetcb-1__st_missPcb-1__samplesKey-
p8
aV__nlep_val-0__LepTmass_val-0__LepTmassMax_val-200__InvariantM_val-0__InvariantM2_val-0__Range_val-0__leppt_val-25__minnjet_val-0__maxnjet_val-9__btagmin_val-0__btagmax_val-9__minmissE_val-0__maxmissE_val-200__percentg_val-10.0__TwoLepcharge_val-1__TwoLepflavour_val-1__st_lepchargecb-0__st_lepflavourcb-0__st_InvMasscb-0__st_lepptcb-0__st_btagjetcb-0__st_lepcb-0__st_jetcb-0__st_missPcb-0__samplesKey-___ZPrime500___ZZ___data_Egamma
p9
aV__nlep_val-0__LepTmass_val-0__LepTmassMax_val-200__InvariantM_val-0__InvariantM2_val-0__Range_val-0__leppt_val-25__minnjet_val-0__maxnjet_val-9__btagmin_val-0__btagmax_val-9__minmissE_val-0__maxmissE_val-200__percentg_val-10.0__TwoLepcharge_val-1__TwoLepflavour_val-1__st_lepchargecb-0__st_lepflavourcb-0__st_InvMasscb-0__st_lepptcb-0__st_btagjetcb-0__st_lepcb-0__st_jetcb-0__st_missPcb-0__samplesKey-___WW___WZ___ZPrime500___ZZ
p10
aV__nlep_val-0__LepTmass_val-0__LepTmassMax_val-200__InvariantM_val-0__InvariantM2_val-0__Range_val-0__leppt_val-25__minnjet_val-0__maxnjet_val-9__btagmin_val-0__btagmax_val-9__minmissE_val-0__maxmissE_val-200__percentg_val-1.0__TwoLepcharge_val-1__TwoLepflavour_val-1__st_lepchargecb-0__st_lepflavourcb-0__st_InvMasscb-0__st_lepptcb-0__st_btagjetcb-0__st_lepcb-0__st_jetcb-0__st_missPcb-0__samplesKey-___ZPrime1000
p11
aV__nlep_val-0__LepTmass_val-0__LepTmassMax_val-200__InvariantM_val-0__InvariantM2_val-0__Range_val-0__leppt_val-25__minnjet_val-0__maxnjet_val-9__btagmin_val-0__btagmax_val-9__minmissE_val-0__maxmissE_val-200__percentg_val-1.0__TwoLepcharge_val-1__TwoLepflavour_val-1__st_lepchargecb-0__st_lepflavourcb-0__st_InvMasscb-0__st_lepptcb-0__st_btagjetcb-0__st_lepcb-0__st_jetcb-0__st_missPcb-0__samplesKey-___ZPrime400___ZPrime500___ZPrime750
p12
aV__nlep_val-0__LepTmass_val-0__LepTmassMax_val-200__InvariantM_val-0__InvariantM2_val-0__Range_val-0__leppt_val-25__minnjet_val-0__maxnjet_val-9__btagmin_val-0__btagmax_val-9__minmissE_val-0__maxmissE_val-200__percentg_val-1.0__TwoLepcharge_val-1__TwoLepflavour_val-1__st_lepchargecb-0__st_lepflavourcb-0__st_InvMasscb-0__st_lepptcb-0__st_btagjetcb-0__st_lepcb-0__st_jetcb-0__st_missPcb-0__samplesKey-___ZPrime400___ZPrime500
p13
aV__nlep_val-0__LepTmass_val-0__LepTmassMax_val-200__InvariantM_val-0__InvariantM2_val-0__Range_val-0__leppt_val-25__minnjet_val-0__maxnjet_val-9__btagmin_val-0__btagmax_val-9__minmissE_val-0__maxmissE_val-200__percentg_val-1.0__TwoLepcharge_val-1__TwoLepflavour_val-1__st_lepchargecb-0__st_lepflavourcb-0__st_InvMasscb-0__st_lepptcb-0__st_btagjetcb-0__st_lepcb-0__st_jetcb-0__st_missPcb-0__samplesKey-___ZPrime1250___ZPrime500
p14
aV__nlep_val-0__LepTmass_val-0__LepTmassMax_val-200__InvariantM_val-0__InvariantM2_val-0__Range_val-0__leppt_val-25__minnjet_val-0__maxnjet_val-9__btagmin_val-0__btagmax_val-9__minmissE_val-0__maxmissE_val-200__percentg_val-0.1__TwoLepcharge_val-1__TwoLepflavour_val-1__st_lepchargecb-0__st_lepflavourcb-0__st_InvMasscb-0__st_lepptcb-0__st_btagjetcb-0__st_lepcb-0__st_jetcb-0__st_missPcb-0__samplesKey-___WW___ZZ
p15
aV__nlep_val-0__LepTmass_val-0__LepTmassMax_val-200__InvariantM_val-0__InvariantM2_val-0__Range_val-0__leppt_val-25__minnjet_val-0__maxnjet_val-9__btagmin_val-0__btagmax_val-9__minmissE_val-0__maxmissE_val-200__percentg_val-0.1__TwoLepcharge_val-1__TwoLepflavour_val-1__st_lepchargecb-0__st_lepflavourcb-0__st_InvMasscb-0__st_lepptcb-0__st_btagjetcb-0__st_lepcb-0__st_jetcb-0__st_missPcb-0__samplesKey-___WW
p16
aV__nlep_val-0__LepTmass_val-0__LepTmassMax_val-200__InvariantM_val-0__InvariantM2_val-0__Range_val-0__leppt_val-25__minnjet_val-0__maxnjet_val-9__btagmin_val-0__btagmax_val-9__minmissE_val-0__maxmissE_val-200__percentg_val-0.2__TwoLepcharge_val-1__TwoLepflavour_val-1__st_lepchargecb-0__st_lepflavourcb-0__st_InvMasscb-0__st_lepptcb-0__st_btagjetcb-0__st_lepcb-0__st_jetcb-0__st_missPcb-0__samplesKey-___WW___WZ___ZZ
p17
aV__nlep_val-0__LepTmass_val-0__LepTmassMax_val-200__InvariantM_val-0__InvariantM2_val-0__Range_val-0__leppt_val-25__minnjet_val-0__maxnjet_val-9__btagmin_val-0__btagmax_val-9__minmissE_val-0__maxmissE_val-200__percentg_val-1.0__TwoLepcharge_val-1__TwoLepflavour_val-1__st_lepchargecb-0__st_lepflavourcb-0__st_InvMasscb-0__st_lepptcb-0__st_btagjetcb-0__st_lepcb-0__st_jetcb-0__st_missPcb-0__samplesKey-___WW___ZZ
p18
aV__nlep_val-0__LepTmass_val-0__LepTmassMax_val-200__InvariantM_val-0__InvariantM2_val-0__Range_val-0__leppt_val-25__minnjet_val-0__maxnjet_val-9__btagmin_val-0__btagmax_val-9__minmissE_val-0__maxmissE_val-200__percentg_val-0.1__TwoLepcharge_val-1__TwoLepflavour_val-1__st_lepchargecb-0__st_lepflavourcb-0__st_InvMasscb-0__st_lepptcb-0__st_btagjetcb-0__st_lepcb-0__st_jetcb-0__st_missPcb-0__samplesKey-___DYeeM08to15___WW
p19
a.