(lp0
V__nlep_val-0__LepTmass_val-0__LepTmassMax_val-200__InvariantM_val-0__InvariantM2_val-0__Range_val-0__leppt_val-25__minnjet_val-0__maxnjet_val-9__btagmin_val-0__btagmax_val-9__minmissE_val-0__maxmissE_val-200__percentg_val-0.1__TwoLepcharge_val-1__TwoLepflavour_val-1__st_lepchargecb-0__st_lepflavourcb-0__st_InvMasscb-0__st_lepptcb-0__st_btagjetcb-0__st_lepcb-0__st_jetcb-0__st_missPcb-0
p1
aV__nlep_val-0__LepTmass_val-0__LepTmassMax_val-200__InvariantM_val-0__InvariantM2_val-0__Range_val-0__leppt_val-25__minnjet_val-0__maxnjet_val-9__btagmin_val-0__btagmax_val-9__minmissE_val-1.0__maxmissE_val-2.0__percentg_val-0.1__TwoLepcharge_val-1__TwoLepflavour_val-1__st_lepchargecb-0__st_lepflavourcb-0__st_InvMasscb-0__st_lepptcb-0__st_btagjetcb-0__st_lepcb-0__st_jetcb-0__st_missPcb-1
p2
aV__nlep_val-0__LepTmass_val-0__LepTmassMax_val-200__InvariantM_val-0__InvariantM2_val-0__Range_val-0__leppt_val-25__minnjet_val-1__maxnjet_val-2__btagmin_val-0__btagmax_val-9__minmissE_val-0__maxmissE_val-200__percentg_val-0.1__TwoLepcharge_val-1__TwoLepflavour_val-1__st_lepchargecb-0__st_lepflavourcb-0__st_InvMasscb-0__st_lepptcb-0__st_btagjetcb-0__st_lepcb-0__st_jetcb-1__st_missPcb-0
p3
a.